; Function Attrs: mustprogress uwtable
define hidden noundef i32 @_ZN8facebook6hermes7tracing10SynthTrace21releaseUnusedFromNameEPKc(ptr noundef %rawName) local_unnamed_addr #1 align 2 personality ptr @__gxx_personality_v0 {
entry:
  %name = alloca %"class.std::__cxx11::basic_string", align 8
  %ref.tmp = alloca %"class.std::allocator.10", align 1
  call void @_ZNSaIcEC1Ev(ptr noundef nonnull align 1 dereferenceable(1) %ref.tmp) #23
  %call.i3 = invoke noundef ptr @_ZNSt7__cxx1112basic_stringIcSt11char_traitsIcESaIcEE13_M_local_dataEv(ptr noundef nonnull align 8 dereferenceable(32) %name)
          to label %call.i.noexc unwind label %lpad

call.i.noexc:                                     ; preds = %entry
  invoke void @_ZNSt7__cxx1112basic_stringIcSt11char_traitsIcESaIcEE12_Alloc_hiderC1EPcRKS3_(ptr noundef nonnull align 8 dereferenceable(8) %name, ptr noundef %call.i3, ptr noundef nonnull align 1 dereferenceable(1) %ref.tmp)
          to label %.noexc unwind label %lpad

.noexc:                                           ; preds = %call.i.noexc
  %cmp.i = icmp eq ptr %rawName, null
  br i1 %cmp.i, label %if.then.i, label %if.end.i

if.then.i:                                        ; preds = %.noexc
  invoke void @_ZSt19__throw_logic_errorPKc(ptr noundef nonnull @.str.150) #26
          to label %invoke.cont.i unwind label %lpad.i

invoke.cont.i:                                    ; preds = %if.then.i
  unreachable

lpad.i:                                           ; preds = %if.end.i, %if.then.i
  %0 = landingpad { ptr, i32 }
          cleanup
  call void @_ZNSaIcED2Ev(ptr noundef nonnull align 1 dereferenceable(1) %name) #23
  br label %lpad.body

if.end.i:                                         ; preds = %.noexc
  %call.i.i = call noundef i64 @strlen(ptr noundef nonnull dereferenceable(1) %rawName) #23
  %add.ptr.i = getelementptr inbounds i8, ptr %rawName, i64 %call.i.i
  invoke void @_ZNSt7__cxx1112basic_stringIcSt11char_traitsIcESaIcEE12_M_constructIPKcEEvT_S8_St20forward_iterator_tag(ptr noundef nonnull align 8 dereferenceable(32) %name, ptr noundef nonnull %rawName, ptr noundef nonnull %add.ptr.i)
          to label %invoke.cont unwind label %lpad.i

invoke.cont:                                      ; preds = %if.end.i
  call void @_ZNSaIcED1Ev(ptr noundef nonnull align 1 dereferenceable(1) %ref.tmp) #23
  %call.i = call noundef i32 @_ZNKSt7__cxx1112basic_stringIcSt11char_traitsIcESaIcEE7compareEPKc(ptr noundef nonnull align 8 dereferenceable(32) %name, ptr noundef nonnull @.str.79) #23
  %cmp.i4 = icmp eq i32 %call.i, 0
  br i1 %cmp.i4, label %cleanup, label %if.end

lpad:                                             ; preds = %call.i.noexc, %entry
  %1 = landingpad { ptr, i32 }
          cleanup
  br label %lpad.body

lpad.body:                                        ; preds = %lpad.i, %lpad
  %eh.lpad-body = phi { ptr, i32 } [ %1, %lpad ], [ %0, %lpad.i ]
  call void @_ZNSaIcED1Ev(ptr noundef nonnull align 1 dereferenceable(1) %ref.tmp) #23
  br label %eh.resume

lpad1:                                            ; preds = %invoke.cont16
  %2 = landingpad { ptr, i32 }
          cleanup
  br label %ehcleanup

if.end:                                           ; preds = %invoke.cont
  %call.i5 = call noundef i32 @_ZNKSt7__cxx1112basic_stringIcSt11char_traitsIcESaIcEE7compareEPKc(ptr noundef nonnull align 8 dereferenceable(32) %name, ptr noundef nonnull @.str.80) #23
  %cmp.i6 = icmp eq i32 %call.i5, 0
  br i1 %cmp.i6, label %cleanup, label %if.end6

if.end6:                                          ; preds = %if.end
  %call.i7 = call noundef i32 @_ZNKSt7__cxx1112basic_stringIcSt11char_traitsIcESaIcEE7compareEPKc(ptr noundef nonnull align 8 dereferenceable(32) %name, ptr noundef nonnull @.str.81) #23
  %cmp.i8 = icmp eq i32 %call.i7, 0
  br i1 %cmp.i8, label %cleanup, label %if.end10

if.end10:                                         ; preds = %if.end6
  %call.i9 = call noundef i32 @_ZNKSt7__cxx1112basic_stringIcSt11char_traitsIcESaIcEE7compareEPKc(ptr noundef nonnull align 8 dereferenceable(32) %name, ptr noundef nonnull @.str.82) #23
  %cmp.i10 = icmp eq i32 %call.i9, 0
  br i1 %cmp.i10, label %cleanup, label %if.end14

if.end14:                                         ; preds = %if.end10
  %exception = call ptr @__cxa_allocate_exception(i64 16) #23
  invoke void @_ZNSt16invalid_argumentC1EPKc(ptr noundef nonnull align 8 dereferenceable(16) %exception, ptr noundef nonnull @.str.83)
          to label %invoke.cont16 unwind label %lpad15

invoke.cont16:                                    ; preds = %if.end14
  invoke void @__cxa_throw(ptr nonnull %exception, ptr nonnull @_ZTISt16invalid_argument, ptr nonnull @_ZNSt16invalid_argumentD1Ev) #26
          to label %unreachable unwind label %lpad1

lpad15:                                           ; preds = %if.end14
  %3 = landingpad { ptr, i32 }
          cleanup
  call void @__cxa_free_exception(ptr %exception) #23
  br label %ehcleanup

cleanup:                                          ; preds = %if.end10, %if.end6, %if.end, %invoke.cont
  %retval.0 = phi i32 [ 0, %invoke.cont ], [ 1, %if.end ], [ 2, %if.end6 ], [ 3, %if.end10 ]
  call void @_ZNSt7__cxx1112basic_stringIcSt11char_traitsIcESaIcEED1Ev(ptr noundef nonnull align 8 dereferenceable(32) %name) #23
  ret i32 %retval.0

ehcleanup:                                        ; preds = %lpad15, %lpad1
  %.pn = phi { ptr, i32 } [ %2, %lpad1 ], [ %3, %lpad15 ]
  call void @_ZNSt7__cxx1112basic_stringIcSt11char_traitsIcESaIcEED1Ev(ptr noundef nonnull align 8 dereferenceable(32) %name) #23
  br label %eh.resume

eh.resume:                                        ; preds = %ehcleanup, %lpad.body
  %.pn.pn = phi { ptr, i32 } [ %.pn, %ehcleanup ], [ %eh.lpad-body, %lpad.body ]
  resume { ptr, i32 } %.pn.pn

unreachable:                                      ; preds = %invoke.cont16
  unreachable
}